; Function Attrs: mustprogress uwtable
define dso_local void @_ZN10ResKeyPath4pushERKNSt7__cxx1112basic_stringIcSt11char_traitsIcESaIcEEE(ptr noundef nonnull align 8 dereferenceable(24) %this, ptr noundef nonnull align 8 dereferenceable(32) %key) local_unnamed_addr #4 align 2 personality ptr @__gxx_personality_v0 {
entry:
  %call5.i.i.i.i.i.i = tail call noalias noundef nonnull dereferenceable(48) ptr @_Znwm(i64 noundef 48) #18
  %_M_storage.i.i.i.i = getelementptr inbounds i8, ptr %call5.i.i.i.i.i.i, i64 16
  invoke void @_ZNSt7__cxx1112basic_stringIcSt11char_traitsIcESaIcEEC1ERKS4_(ptr noundef nonnull align 8 dereferenceable(32) %_M_storage.i.i.i.i, ptr noundef nonnull align 8 dereferenceable(32) %key)
          to label %_ZNSt7__cxx114listINS_12basic_stringIcSt11char_traitsIcESaIcEEESaIS5_EE9push_backERKS5_.exit unwind label %_ZNSt15__allocated_ptrISaISt10_List_nodeINSt7__cxx1112basic_stringIcSt11char_traitsIcESaIcEEEEEED2Ev.exit9.i.i.i

_ZNSt15__allocated_ptrISaISt10_List_nodeINSt7__cxx1112basic_stringIcSt11char_traitsIcESaIcEEEEEED2Ev.exit9.i.i.i: ; preds = %entry
  %0 = landingpad { ptr, i32 }
          cleanup
  tail call void @_ZdlPv(ptr noundef nonnull %call5.i.i.i.i.i.i) #19
  resume { ptr, i32 } %0

_ZNSt7__cxx114listINS_12basic_stringIcSt11char_traitsIcESaIcEEESaIS5_EE9push_backERKS5_.exit: ; preds = %entry
  tail call void @_ZNSt8__detail15_List_node_base7_M_hookEPS0_(ptr noundef nonnull align 8 dereferenceable(16) %call5.i.i.i.i.i.i, ptr noundef nonnull %this) #17
  %_M_size.i.i.i = getelementptr inbounds i8, ptr %this, i64 16
  %1 = load i64, ptr %_M_size.i.i.i, align 8
  %add.i.i.i = add i64 %1, 1
  store i64 %add.i.i.i, ptr %_M_size.i.i.i, align 8
  ret void
}